(lp0
(iPlay
Play
p1
(dp2
S'distance'
p3
I0
sS'direction'
p4
VRight
p5
sS'position'
p6
I20
sS'distance_to_first'
p7
I10
sS'isdata'
p8
I01
sS'start_down'
p9
I1
sS'players'
p10
(lp11
(I14
VRyan Lindley
p12
tp13
a(I84
VRob Housler
p14
tp15
asS'quarter'
p16
I0
sS'score'
p17
(dp18
sS'formation'
p19
NsS'time'
p20
V15:00
p21
sS'offense'
p22
VARI
p23
sS'turnover'
p24
I00
sS'play_type'
p25
Vpass
p26
sS'complete'
p27
I01
sba(iPlay
Play
p28
(dp29
g3
I2
sg4
VRight
p30
sg6
I20
sg7
I10
sg8
I01
sg9
I2
sg10
(lp31
(I30
VStepfan Taylor
p32
tp33
a(I25
VBene Benwikere
p34
tp35
asg17
(dp36
sg19
Nsg20
V14:57
p37
sg22
g23
sg16
I0
sg25
Vrush
p38
sg24
I00
sba(iPlay
Play
p39
(dp40
g3
I6
sg4
VRight
p41
sg6
I22
sg7
I8
sg8
I01
sg9
I3
sg10
(lp42
(I14
VRyan Lindley
p43
tp44
a(I39
VRobert Hughes
p45
tp46
a(I58
VThomas Davis
p47
tp48
a(I59
VLuke Kuechly
p49
tp50
asg16
I0
sg17
(dp51
sg19
VShotgun
p52
sg20
V14:16
p53
sg22
g23
sg24
I00
sg25
Vpass
p54
sg27
I00
sba(iPlay
Play
p55
(dp56
g3
I0
sg4
Nsg6
I28
sg7
I2
sg8
I01
sg9
I4
sg10
(lp57
(I2
VDrew Butler
p58
tp59
a(I11
VBrenton Bersin
p60
tp61
asg17
(dp62
sg19
Nsg20
V13:41
p63
sg22
g23
sg16
I0
sg25
Vpunt
p64
sg24
I00
sba(iPlay
Play
p65
(dp66
g3
I0
sg4
VRight
p67
sg6
I52
sg7
I10
sg8
I01
sg9
I1
sg10
(lp68
(I28
VJonathan Stewart
p69
tp70
a(I93
VCalais Campbell
p71
tp72
a(I22
VTony Jefferson
p73
tp74
asg17
(dp75
sg19
Nsg20
V13:30
p76
sg22
VCAR
p77
sg16
I0
sg25
Vrush
p78
sg24
I00
sba(iPlay
Play
p79
(dp80
g3
I8
sg4
VLeft
p81
sg6
I52
sg7
I10
sg8
I01
sg9
I2
sg10
(lp82
(I1
VCam Newton
p83
tp84
a(I13
VKelvin Benjamin
p85
tp86
a(I21
VPatrick Peterson
p87
tp88
asg16
I0
sg17
(dp89
sg19
VShotgun
p90
sg20
V12:57
p91
sg22
g77
sg24
I00
sg25
Vpass
p92
sg27
I00
sba(iPlay
Play
p93
(dp94
g3
I8
sg4
VLeft
p95
sg6
I60
sg7
I2
sg8
I01
sg9
I3
sg10
(lp96
(I1
VCam Newton
p97
tp98
a(I13
VKelvin Benjamin
p99
tp100
a(I21
VPatrick Peterson
p101
tp102
asg16
I0
sg17
(dp103
sg19
VShotgun
p104
sg20
V12:33
p105
sg22
g77
sg24
I00
sg25
Vpass
p106
sg27
I00
sba(iPlay
Play
p107
(dp108
g3
I3
sg4
VRight
p109
sg6
I68
sg7
I10
sg8
I01
sg9
I1
sg10
(lp110
(I28
VJonathan Stewart
p111
tp112
a(I50
VLarry Foote
p113
tp114
asg17
(dp115
sg19
Nsg20
V12:07
p116
sg22
g77
sg16
I0
sg25
Vrush
p117
sg24
I00
sba(iPlay
Play
p118
(dp119
g3
I0
sg4
VMiddle
p120
sg6
I71
sg7
I7
sg8
I01
sg9
I2
sg10
(lp121
(I1
VCam Newton
p122
tp123
a(I84
VEd Dickson
p124
tp125
asg16
I0
sg17
(dp126
sg19
VShotgun
p127
sg20
V11:38
p128
sg22
g77
sg24
I00
sg25
Vpass
p129
sg27
I01
sba(iPlay
Play
p130
(dp131
g3
I0
sg4
VRight
p132
sg6
I71
sg7
I7
sg8
I01
sg9
I3
sg10
(lp133
(I1
VCam Newton
p134
tp135
a(I16
VPhilly Brown
p136
tp137
a(I31
VAntonio Cromartie
p138
tp139
asg16
I0
sg17
(dp140
sg19
VShotgun
p141
sg20
V11:35
p142
sg22
g77
sg24
I00
sg25
Vpass
p143
sg27
I01
sba(iPlay
Play
p144
(dp145
g8
I01
sg9
I4
sg10
(lp146
(I8
VBrad Nortman
p147
tp148
a(I9
VGraham Gano
p149
tp150
asg17
(dp151
g77
I1
ssg20
V11:32
p152
sg22
g77
sg16
I0
sg25
Vfieldgoal
p153
sg24
I00
sba(iPlay
Play
p154
(dp155
g3
I5
sg4
VLeft
p156
sg6
I20
sg7
I10
sg8
I01
sg9
I1
sg10
(lp157
(I33
VKerwynn Williams
p158
tp159
a(I59
VLuke Kuechly
p160
tp161
asg17
(dp162
sg19
Nsg20
V11:27
p163
sg22
VARI
p164
sg16
I0
sg25
Vrush
p165
sg24
I00
sba(iPlay
Play
p166
(dp167
g3
I4
sg4
VMiddle
p168
sg6
I25
sg7
I5
sg8
I01
sg9
I2
sg10
(lp169
(I33
VKerwynn Williams
p170
tp171
a(I58
VThomas Davis
p172
tp173
a(I94
VKony Ealy
p174
tp175
asg17
(dp176
sg19
Nsg20
V10:45
p177
sg22
g164
sg16
I0
sg25
Vrush
p178
sg24
I00
sba(iPlay
Play
p179
(dp180
g3
I0
sg4
Nsg6
I29
sg7
I1
sg8
I01
sg9
I3
sg10
(lp181
(I39
VRobert Hughes
p182
tp183
a(I91
VColin Cole
p184
tp185
a(I33
VTre Boston
p186
tp187
asg17
(dp188
sg19
Nsg20
V10:00
p189
sg22
g164
sg16
I0
sg25
Vrush
p190
sg24
I00
sba(iPlay
Play
p191
(dp192
g3
I0
sg4
Nsg6
I29
sg7
I1
sg8
I01
sg9
I4
sg10
(lp193
(I2
VDrew Butler
p194
tp195
asg17
(dp196
sg19
Nsg20
V09:24
p197
sg22
g164
sg16
I0
sg25
Vpunt
p198
sg24
I00
sba(iPlay
Play
p199
(dp200
g3
I6
sg4
VLeft
p201
sg6
I43
sg7
I10
sg8
I01
sg9
I1
sg10
(lp202
(I1
VCam Newton
p203
tp204
a(I13
VKelvin Benjamin
p205
tp206
a(I21
VPatrick Peterson
p207
tp208
asg16
I0
sg17
(dp209
sg19
VShotgun
p210
sg20
V09:12
p211
sg22
VCAR
p212
sg24
I00
sg25
Vpass
p213
sg27
I00
sba(iPlay
Play
p214
(dp215
g3
I5
sg4
VLeft
p216
sg6
I49
sg7
I4
sg8
I01
sg9
I2
sg10
(lp217
(I82
VJerricho Cotchery
p218
tp219
a(I22
VTony Jefferson
p220
tp221
asg17
(dp222
sg19
VShotgun
p223
sg20
V08:44
p224
sg22
g212
sg16
I0
sg25
Vrush
p225
sg24
I00
sba(iPlay
Play
p226
(dp227
g3
I3
sg4
VMiddle
p228
sg6
I54
sg7
I10
sg8
I01
sg9
I1
sg10
(lp229
(I28
VJonathan Stewart
p230
tp231
a(I57
VAlex Okafor
p232
tp233
a(I92
VDan Williams
p234
tp235
asg17
(dp236
sg19
VShotgun
p237
sg20
V08:12
p238
sg22
g212
sg16
I0
sg25
Vrush
p239
sg24
I00
sba(iPlay
Play
p240
(dp241
g3
I0
sg4
VRight
p242
sg6
I57
sg7
I7
sg8
I01
sg9
I2
sg10
(lp243
(I1
VCam Newton
p244
tp245
a(I82
VJerricho Cotchery
p246
tp247
a(I22
VTony Jefferson
p248
tp249
asg16
I0
sg17
(dp250
sg19
VShotgun
p251
sg20
V07:45
p252
sg22
g212
sg24
I00
sg25
Vpass
p253
sg27
I01
sba(iPlay
Play
p254
(dp255
g3
I4
sg4
VRight
p256
sg6
I62
sg7
I10
sg8
I01
sg9
I1
sg10
(lp257
(I43
VFozzy Whittaker
p258
tp259
a(I26
VRashad Johnson
p260
tp261
asg17
(dp262
sg19
Nsg20
V07:39
p263
sg22
g212
sg16
I0
sg25
Vrush
p264
sg24
I00
sba(iPlay
Play
p265
(dp266
g3
I0
sg4
VLeft
p267
sg6
I66
sg7
I6
sg8
I01
sg9
I2
sg10
(lp268
(I1
VCam Newton
p269
tp270
a(I82
VJerricho Cotchery
p271
tp272
a(I31
VAntonio Cromartie
p273
tp274
asg16
I0
sg17
(dp275
sg19
VShotgun
p276
sg20
V06:56
p277
sg22
g212
sg24
I00
sg25
Vpass
p278
sg27
I00
sba(iPlay
Play
p279
(dp280
g3
I7
sg4
VLeft
p281
sg6
I66
sg7
I6
sg8
I01
sg9
I3
sg10
(lp282
(I1
VCam Newton
p283
tp284
a(I16
VPhilly Brown
p285
tp286
asg16
I0
sg17
(dp287
sg19
VShotgun
p288
sg20
V06:15
p289
sg22
g212
sg24
I00
sg25
Vpass
p290
sg27
I00
sba(iPlay
Play
p291
(dp292
g3
I14
sg4
VMiddle
p293
sg6
I73
sg7
I10
sg8
I01
sg9
I1
sg10
(lp294
(I1
VCam Newton
p295
tp296
a(I88
VGreg Olsen
p297
tp298
a(I94
VSam Acho
p299
tp300
asg16
I0
sg17
(dp301
sg19
VShotgun
p302
sg20
V05:55
p303
sg22
g212
sg24
I00
sg25
Vpass
p304
sg27
I00
sba(iPlay
Play
p305
(dp306
g3
I0
sg4
VRight
p307
sg6
I87
sg7
I10
sg8
I01
sg9
I1
sg10
(lp308
(I28
VJonathan Stewart
p309
tp310
asg17
(dp311
g212
I6
ssg19
VShotgun
p312
sg20
V05:28
p313
sg22
g212
sg16
I0
sg25
Vrush
p314
sg24
I00
sba(iPlay
Play
p315
(dp316
g8
I01
sg9
Nsg10
(lp317
(I9
VGraham Gano
p318
tp319
asg17
(dp320
g212
I1
ssg20
V05:21
p321
sg22
g212
sg16
I0
sg25
Vextrapoint
p322
sg24
I00
sba(iPlay
Play
p323
(dp324
g3
I2
sg4
VLeft
p325
sg6
I20
sg7
I10
sg8
I01
sg9
I1
sg10
(lp326
(I14
VRyan Lindley
p327
tp328
a(I12
VJohn Brown
p329
tp330
a(I58
VThomas Davis
p331
tp332
asg16
I0
sg17
(dp333
sg19
VShotgun
p334
sg20
V05:21
p335
sg22
VARI
p336
sg24
I00
sg25
Vpass
p337
sg27
I00
sba(iPlay
Play
p338
(dp339
g3
I0
sg4
VLeft
p340
sg6
I22
sg7
I8
sg8
I01
sg9
I2
sg10
(lp341
(I14
VRyan Lindley
p342
tp343
a(I33
VKerwynn Williams
p344
tp345
a(I59
VLuke Kuechly
p346
tp347
asg16
I0
sg17
(dp348
sg19
VShotgun
p349
sg20
V04:49
p350
sg22
g336
sg24
I00
sg25
Vpass
p351
sg27
I00
sba(iPlay
Play
p352
(dp353
g3
I9
sg4
VRight
p354
sg6
I22
sg7
I8
sg8
I01
sg9
I3
sg10
(lp355
(I14
VRyan Lindley
p356
tp357
a(I15
VMichael Floyd
p358
tp359
asg16
I0
sg17
(dp360
sg19
VShotgun
p361
sg20
V04:04
p362
sg22
g336
sg24
I00
sg25
Vpass
p363
sg27
I00
sba(iPlay
Play
p364
(dp365
g3
I5
sg4
VLeft
p366
sg6
I31
sg7
I10
sg8
I01
sg9
I1
sg10
(lp367
(I14
VRyan Lindley
p368
tp369
a(I11
VLarry Fitzgerald
p370
tp371
a(I59
VLuke Kuechly
p372
tp373
asg16
I0
sg17
(dp374
sg19
Nsg20
V03:36
p375
sg22
g336
sg24
I00
sg25
Vpass
p376
sg27
I00
sba(iPlay
Play
p377
(dp378
g3
I1
sg4
VMiddle
p379
sg6
I36
sg7
I5
sg8
I01
sg9
I2
sg10
(lp380
(I33
VKerwynn Williams
p381
tp382
a(I98
VStar Lotulelei
p383
tp384
asg17
(dp385
sg19
Nsg20
V03:06
p386
sg22
g336
sg16
I0
sg25
Vrush
p387
sg24
I00
sba(iPlay
Play
p388
(dp389
g3
I0
sg4
VRight
p390
sg6
I37
sg7
I4
sg8
I01
sg9
I3
sg10
(lp391
(I14
VRyan Lindley
p392
tp393
a(I13
VJaron Brown
p394
tp395
asg16
I0
sg17
(dp396
sg19
VShotgun
p397
sg20
V02:25
p398
sg22
g336
sg24
I00
sg25
Vpass
p399
sg27
I01
sba(iPlay
Play
p400
(dp401
g3
I0
sg4
Nsg6
I37
sg7
I4
sg8
I01
sg9
I4
sg10
(lp402
(I2
VDrew Butler
p403
tp404
a(I11
VBrenton Bersin
p405
tp406
a(I28
VJustin Bethel
p407
tp408
asg17
(dp409
sg19
Nsg20
V02:22
p410
sg22
g336
sg16
I0
sg25
Vpunt
p411
sg24
I00
sba(iPlay
Play
p412
(dp413
g3
I-2
sg4
VLeft
p414
sg6
I70
sg7
I10
sg8
I01
sg9
I1
sg10
(lp415
(I33
VKerwynn Williams
p416
tp417
a(I58
VThomas Davis
p418
tp419
a(I96
VWes Horton
p420
tp421
asg17
(dp422
sg19
VShotgun
p423
sg20
V02:11
p424
sg22
g336
sg16
I0
sg25
Vrush
p425
sg24
I00
sba(iPlay
Play
p426
(dp427
g3
I2
sg4
VRight
p428
sg6
I68
sg7
I12
sg8
I01
sg9
I2
sg10
(lp429
(I14
VRyan Lindley
p430
tp431
a(I33
VKerwynn Williams
p432
tp433
a(I59
VLuke Kuechly
p434
tp435
a(I95
VCharles Johnson
p436
tp437
asg16
I0
sg17
(dp438
sg19
VShotgun
p439
sg20
V01:34
p440
sg22
g336
sg24
I00
sg25
Vpass
p441
sg27
I00
sba(iPlay
Play
p442
(dp443
g3
I0
sg4
VLeft
p444
sg6
I85
sg7
I10
sg8
I01
sg9
I1
sg10
(lp445
(I30
VStepfan Taylor
p446
tp447
a(I98
VStar Lotulelei
p448
tp449
asg17
(dp450
sg19
Nsg20
V01:07
p451
sg22
g336
sg16
I0
sg25
Vrush
p452
sg24
I00
sba(iPlay
Play
p453
(dp454
g3
I0
sg4
VRight
p455
sg6
I85
sg7
I10
sg8
I01
sg9
I2
sg10
(lp456
(I14
VRyan Lindley
p457
tp458
a(I11
VLarry Fitzgerald
p459
tp460
asg16
I0
sg17
(dp461
sg19
VShotgun
p462
sg20
V:23
p463
sg22
g336
sg24
I00
sg25
Vpass
p464
sg27
I01
sba(iPlay
Play
p465
(dp466
g3
I14
sg4
VRight
p467
sg6
I85
sg7
I10
sg8
I01
sg9
I3
sg10
(lp468
(I14
VRyan Lindley
p469
tp470
a(I11
VLarry Fitzgerald
p471
tp472
a(I42
VColin Jones
p473
tp474
a(I59
VLuke Kuechly
p475
tp476
asg16
I0
sg17
(dp477
sg19
VShotgun
p478
sg20
V:19
p479
sg22
g336
sg24
I00
sg25
Vpass
p480
sg27
I00
sba(iPlay
Play
p481
(dp482
g3
I0
sg4
VMiddle
p483
sg6
I99
sg7
I1
sg8
I01
sg9
I1
sg10
(lp484
(I14
VRyan Lindley
p485
tp486
a(I85
VDarren Fells
p487
tp488
asg16
I1
sg17
(dp489
VARI
p490
I6
ssg19
Nsg20
V15:00
p491
sg22
g490
sg24
I00
sg25
Vpass
p492
sg27
I00
sba(iPlay
Play
p493
(dp494
g8
I01
sg9
Nsg10
(lp495
(I7
VChandler Catanzaro
p496
tp497
asg17
(dp498
g490
I1
ssg20
V14:56
p499
sg22
g490
sg16
I1
sg25
Vextrapoint
p500
sg24
I00
sba(iPlay
Play
p501
(dp502
g3
I0
sg4
VRight
p503
sg6
I20
sg7
I10
sg8
I01
sg9
I1
sg10
(lp504
(I1
VCam Newton
p505
tp506
a(I84
VEd Dickson
p507
tp508
a(I31
VAntonio Cromartie
p509
tp510
asg16
I1
sg17
(dp511
sg19
VShotgun
p512
sg20
V14:56
p513
sg22
VCAR
p514
sg24
I00
sg25
Vpass
p515
sg27
I01
sba(iPlay
Play
p516
(dp517
g3
I0
sg4
Nsg6
I25
sg7
I10
sg8
I01
sg9
I1
sg10
(lp518
(I92
VDan Williams
p519
tp520
asg17
(dp521
sg19
Nsg20
V14:51
p522
sg22
g514
sg16
I1
sg25
Vpenalty
p523
sg24
I00
sba(iPlay
Play
p524
(dp525
g3
I10
sg4
VLeft
p526
sg6
I30
sg7
I5
sg8
I01
sg9
I1
sg10
(lp527
(I28
VJonathan Stewart
p528
tp529
a(I57
VAlex Okafor
p530
tp531
asg17
(dp532
sg19
VShotgun
p533
sg20
V14:51
p534
sg22
g514
sg16
I1
sg25
Vrush
p535
sg24
I00
sba(iPlay
Play
p536
(dp537
g3
I18
sg4
VRight
p538
sg6
I40
sg7
I10
sg8
I01
sg9
I1
sg10
(lp539
(I28
VJonathan Stewart
p540
tp541
a(I26
VRashad Johnson
p542
tp543
asg17
(dp544
sg19
VShotgun
p545
sg20
V14:21
p546
sg22
g514
sg16
I1
sg25
Vrush
p547
sg24
I00
sba(iPlay
Play
p548
(dp549
g3
I12
sg4
VRight
p550
sg6
I58
sg7
I10
sg8
I01
sg9
I1
sg10
(lp551
(I1
VCam Newton
p552
tp553
a(I26
VRashad Johnson
p554
tp555
asg17
(dp556
sg19
VShotgun
p557
sg20
V13:46
p558
sg22
g514
sg16
I1
sg25
Vrush
p559
sg24
I00
sba(iPlay
Play
p560
(dp561
g3
I0
sg4
Nsg6
I70
sg7
I10
sg8
I01
sg9
I1
sg10
(lp562
(I77
VByron Bell
p563
tp564
asg17
(dp565
sg19
Nsg20
V13:11
p566
sg22
g514
sg16
I1
sg25
Vpenalty
p567
sg24
I00
sba(iPlay
Play
p568
(dp569
g3
I0
sg4
VRight
p570
sg6
I65
sg7
I15
sg8
I01
sg9
I1
sg10
(lp571
(I1
VCam Newton
p572
tp573
a(I84
VEd Dickson
p574
tp575
asg16
I1
sg17
(dp576
sg19
VShotgun
p577
sg20
V12:53
p578
sg22
g514
sg24
I00
sg25
Vpass
p579
sg27
I01
sba(iPlay
Play
p580
(dp581
g3
I10
sg4
VRight
p582
sg6
I65
sg7
I15
sg8
I01
sg9
I2
sg10
(lp583
(I1
VCam Newton
p584
tp585
a(I82
VJerricho Cotchery
p586
tp587
a(I31
VAntonio Cromartie
p588
tp589
asg16
I1
sg17
(dp590
sg19
VShotgun
p591
sg20
V12:49
p592
sg22
g514
sg24
I00
sg25
Vpass
p593
sg27
I00
sba(iPlay
Play
p594
(dp595
g3
I0
sg4
VRight
p596
sg6
I75
sg7
I5
sg8
I01
sg9
I3
sg10
(lp597
(I1
VCam Newton
p598
tp599
a(I13
VKelvin Benjamin
p600
tp601
asg16
I1
sg17
(dp602
sg19
VShotgun
p603
sg20
V12:11
p604
sg22
g514
sg24
I00
sg25
Vpass
p605
sg27
I01
sba(iPlay
Play
p606
(dp607
g8
I01
sg9
I4
sg10
(lp608
(I8
VBrad Nortman
p609
tp610
a(I9
VGraham Gano
p611
tp612
asg17
(dp613
sg20
V12:06
p614
sg22
g514
sg16
I1
sg25
Vfieldgoal
p615
sg24
I00
sba(iPlay
Play
p616
(dp617
g3
I-8
sg4
Nsg6
I33
sg7
I10
sg8
I01
sg9
I1
sg10
(lp618
(I14
VRyan Lindley
p619
tp620
a(I92
VDwan Edwards
p621
tp622
asg16
I1
sg17
(dp623
sg19
VShotgun
p624
sg20
V12:01
p625
sg22
VARI
p626
sg24
I00
sg25
Vpass
p627
sg27
I00
sba(iPlay
Play
p628
(dp629
g3
I6
sg4
VRight
p630
sg6
I25
sg7
I18
sg8
I01
sg9
I2
sg10
(lp631
(I14
VRyan Lindley
p632
tp633
a(I12
VJohn Brown
p634
tp635
a(I24
VJosh Norman
p636
tp637
asg16
I1
sg17
(dp638
sg19
VShotgun
p639
sg20
V11:17
p640
sg22
g626
sg24
I00
sg25
Vpass
p641
sg27
I00
sba(iPlay
Play
p642
(dp643
g3
I-5
sg4
VMiddle
p644
sg6
I31
sg7
I12
sg8
I01
sg9
I3
sg10
(lp645
(I14
VRyan Lindley
p646
tp647
a(I11
VLarry Fitzgerald
p648
tp649
asg16
I1
sg17
(dp650
sg19
VShotgun
p651
sg20
V10:34
p652
sg22
g626
sg24
I00
sg25
Vpass
p653
sg27
I01
sba(iPlay
Play
p654
(dp655
g3
I0
sg4
Nsg6
I31
sg7
I17
sg8
I01
sg9
I4
sg10
(lp656
(I2
VDrew Butler
p657
tp658
a(I28
VJustin Bethel
p659
tp660
asg17
(dp661
sg19
Nsg20
V10:28
p662
sg22
g626
sg16
I1
sg25
Vpunt
p663
sg24
I00
sba(iPlay
Play
p664
(dp665
g3
I7
sg4
VRight
p666
sg6
I17
sg7
I10
sg8
I01
sg9
I1
sg10
(lp667
(I1
VCam Newton
p668
tp669
a(I16
VPhilly Brown
p670
tp671
a(I73
VJosh Mauro
p672
tp673
asg16
I1
sg17
(dp674
sg19
VShotgun
p675
sg20
V10:17
p676
sg22
VCAR
p677
sg24
I00
sg25
Vpass
p678
sg27
I00
sba(iPlay
Play
p679
(dp680
g3
I4
sg4
VLeft
p681
sg6
I24
sg7
I3
sg8
I01
sg9
I2
sg10
(lp682
(I28
VJonathan Stewart
p683
tp684
a(I92
VDan Williams
p685
tp686
asg17
(dp687
sg19
Nsg20
V09:41
p688
sg22
g677
sg16
I1
sg25
Vrush
p689
sg24
I00
sba(iPlay
Play
p690
(dp691
g3
I16
sg4
VRight
p692
sg6
I28
sg7
I10
sg8
I01
sg9
I1
sg10
(lp693
(I1
VCam Newton
p694
tp695
a(I88
VGreg Olsen
p696
tp697
a(I22
VTony Jefferson
p698
tp699
asg16
I1
sg17
(dp700
sg19
VShotgun
p701
sg20
V09:07
p702
sg22
g677
sg24
I00
sg25
Vpass
p703
sg27
I00
sba(iPlay
Play
p704
(dp705
g3
I3
sg4
VLeft
p706
sg6
I44
sg7
I10
sg8
I01
sg9
I1
sg10
(lp707
(I28
VJonathan Stewart
p708
tp709
a(I22
VTony Jefferson
p710
tp711
a(I94
VSam Acho
p712
tp713
asg17
(dp714
sg19
Nsg20
V08:31
p715
sg22
g677
sg16
I1
sg25
Vrush
p716
sg24
I00
sba(iPlay
Play
p717
(dp718
g3
I2
sg4
VRight
p719
sg6
I47
sg7
I7
sg8
I01
sg9
I2
sg10
(lp720
(I28
VJonathan Stewart
p721
tp722
a(I57
VAlex Okafor
p723
tp724
asg17
(dp725
sg19
Nsg20
V07:50
p726
sg22
g677
sg16
I1
sg25
Vrush
p727
sg24
I00
sba(iPlay
Play
p728
(dp729
g3
I0
sg4
VRight
p730
sg6
I49
sg7
I5
sg8
I01
sg9
I3
sg10
(lp731
(I1
VCam Newton
p732
tp733
a(I16
VPhilly Brown
p734
tp735
asg16
I1
sg17
(dp736
sg19
VShotgun
p737
sg20
V07:12
p738
sg22
g677
sg24
I00
sg25
Vpass
p739
sg27
I01
sba(iPlay
Play
p740
(dp741
g3
I0
sg4
Nsg6
I49
sg7
I5
sg8
I01
sg9
I4
sg10
(lp742
(I8
VBrad Nortman
p743
tp744
a(I44
VJ.J. Jansen
p745
tp746
asg17
(dp747
sg19
Nsg20
V07:08
p748
sg22
g677
sg16
I1
sg25
Vpunt
p749
sg24
I00
sba(iPlay
Play
p750
(dp751
g3
I1
sg4
VMiddle
p752
sg6
I2
sg7
I10
sg8
I01
sg9
I1
sg10
(lp753
(I30
VStepfan Taylor
p754
tp755
a(I95
VCharles Johnson
p756
tp757
a(I24
VJosh Norman
p758
tp759
asg17
(dp760
sg19
Nsg20
V06:54
p761
sg22
VARI
p762
sg16
I1
sg25
Vrush
p763
sg24
I00
sba(iPlay
Play
p764
(dp765
g3
I0
sg4
VRight
p766
sg6
I3
sg7
I9
sg8
I01
sg9
I2
sg10
(lp767
(I14
VRyan Lindley
p768
tp769
a(I84
VRob Housler
p770
tp771
asg16
I1
sg17
(dp772
sg19
Nsg20
V06:12
p773
sg22
g762
sg24
I00
sg25
Vpass
p774
sg27
I01
sba(iPlay
Play
p775
(dp776
g3
I0
sg4
VMiddle
p777
sg6
I3
sg7
I9
sg8
I01
sg9
I3
sg10
(lp778
(I14
VRyan Lindley
p779
tp780
a(I89
VJohn Carlson
p781
tp782
asg16
I1
sg17
(dp783
sg19
VShotgun
p784
sg20
V06:05
p785
sg22
g762
sg24
I00
sg25
Vpass
p786
sg27
I01
sba(iPlay
Play
p787
(dp788
g3
I0
sg4
Nsg6
I3
sg7
I9
sg8
I01
sg9
I4
sg10
(lp789
(I2
VDrew Butler
p790
tp791
a(I11
VBrenton Bersin
p792
tp793
asg17
(dp794
sg19
Nsg20
V06:01
p795
sg22
g762
sg16
I1
sg25
Vpunt
p796
sg24
I00
sba(iPlay
Play
p797
(dp798
g3
I0
sg4
VLeft
p799
sg6
I66
sg7
I10
sg8
I01
sg9
I1
sg10
(lp800
(I1
VCam Newton
p801
tp802
a(I13
VKelvin Benjamin
p803
tp804
asg16
I1
sg17
(dp805
sg19
VShotgun
p806
sg20
V05:52
p807
sg22
VCAR
p808
sg24
I00
sg25
Vpass
p809
sg27
I01
sba(iPlay
Play
p810
(dp811
g3
I-3
sg4
VRight
p812
sg6
I66
sg7
I10
sg8
I01
sg9
I2
sg10
(lp813
(I1
VCam Newton
p814
tp815
a(I28
VJonathan Stewart
p816
tp817
a(I94
VSam Acho
p818
tp819
a(I98
VFrostee Rucker
p820
tp821
asg16
I1
sg17
(dp822
sg19
VShotgun
p823
sg20
V05:48
p824
sg22
g808
sg24
I00
sg25
Vpass
p825
sg27
I00
sba(iPlay
Play
p826
(dp827
g3
I50
sg4
VLeft
p828
sg6
I63
sg7
I13
sg8
I01
sg9
I3
sg10
(lp829
(I1
VCam Newton
p830
tp831
a(I82
VJerricho Cotchery
p832
tp833
a(I31
VAntonio Cromartie
p834
tp835
asg16
I1
sg17
(dp836
sg19
VShotgun
p837
sg20
V05:05
p838
sg22
g808
sg24
I01
sg25
Vpass
p839
sg27
I01
sba(iPlay
Play
p840
(dp841
g3
I4
sg4
VRight
p842
sg6
I83
sg7
I10
sg8
I01
sg9
I1
sg10
(lp843
(I33
VKerwynn Williams
p844
tp845
a(I59
VLuke Kuechly
p846
tp847
a(I98
VStar Lotulelei
p848
tp849
asg17
(dp850
sg19
Nsg20
V04:54
p851
sg22
VARI
p852
sg16
I1
sg25
Vrush
p853
sg24
I00
sba(iPlay
Play
p854
(dp855
g3
I3
sg4
VLeft
p856
sg6
I87
sg7
I6
sg8
I01
sg9
I2
sg10
(lp857
(I33
VKerwynn Williams
p858
tp859
a(I42
VColin Jones
p860
tp861
a(I59
VLuke Kuechly
p862
tp863
asg17
(dp864
sg19
VShotgun
p865
sg20
V04:11
p866
sg22
g852
sg16
I1
sg25
Vrush
p867
sg24
I00
sba(iPlay
Play
p868
(dp869
g3
I9
sg4
VMiddle
p870
sg6
I90
sg7
I3
sg8
I01
sg9
I3
sg10
(lp871
(I33
VKerwynn Williams
p872
tp873
a(I24
VJosh Norman
p874
tp875
a(I42
VColin Jones
p876
tp877
asg17
(dp878
sg19
VShotgun
p879
sg20
V03:31
p880
sg22
g852
sg16
I1
sg25
Vrush
p881
sg24
I00
sba(iPlay
Play
p882
(dp883
g3
I0
sg4
VMiddle
p884
sg6
I99
sg7
I1
sg8
I01
sg9
I1
sg10
(lp885
(I23
VMarion Grice
p886
tp887
a(I99
VKawann Short
p888
tp889
a(I41
VRoman Harper
p890
tp891
asg17
(dp892
sg19
Nsg20
V02:55
p893
sg22
g852
sg16
I1
sg25
Vrush
p894
sg24
I00
sba(iPlay
Play
p895
(dp896
g3
I0
sg4
VMiddle
p897
sg6
I99
sg7
I1
sg8
I01
sg9
I1
sg10
(lp898
(I23
VMarion Grice
p899
tp900
asg17
(dp901
g852
I6
ssg19
Nsg20
V02:46
p902
sg22
g852
sg16
I1
sg25
Vrush
p903
sg24
I00
sba(iPlay
Play
p904
(dp905
g8
I01
sg9
Nsg10
(lp906
(I7
VChandler Catanzaro
p907
tp908
asg17
(dp909
g852
I1
ssg20
V02:50
p910
sg22
g852
sg16
I1
sg25
Vextrapoint
p911
sg24
I00
sba(iPlay
Play
p912
(dp913
g3
I11
sg4
VRight
p914
sg6
I20
sg7
I10
sg8
I01
sg9
I1
sg10
(lp915
(I28
VJonathan Stewart
p916
tp917
a(I26
VRashad Johnson
p918
tp919
asg17
(dp920
sg19
VShotgun
p921
sg20
V02:44
p922
sg22
VCAR
p923
sg16
I1
sg25
Vrush
p924
sg24
I00
sba(iPlay
Play
p925
(dp926
g3
I8
sg4
VLeft
p927
sg6
I31
sg7
I10
sg8
I01
sg9
I1
sg10
(lp928
(I1
VCam Newton
p929
tp930
a(I25
VJerraud Powers
p931
tp932
asg17
(dp933
sg19
VShotgun
p934
sg20
V02:18
p935
sg22
g923
sg16
I1
sg25
Vrush
p936
sg24
I00
sba(iPlay
Play
p937
(dp938
g3
I6
sg4
VMiddle
p939
sg6
I39
sg7
I2
sg8
I01
sg9
I2
sg10
(lp940
(I35
VMike Tolbert
p941
tp942
a(I51
VKevin Minter
p943
tp944
asg17
(dp945
sg19
VShotgun
p946
sg20
V02:00
p947
sg22
g923
sg16
I1
sg25
Vrush
p948
sg24
I00
sba(iPlay
Play
p949
(dp950
g3
I7
sg4
VRight
p951
sg6
I45
sg7
I10
sg8
I01
sg9
I1
sg10
(lp952
(I1
VCam Newton
p953
tp954
a(I88
VGreg Olsen
p955
tp956
a(I36
VDeone Bucannon
p957
tp958
asg16
I1
sg17
(dp959
sg19
VShotgun
p960
sg20
V01:38
p961
sg22
g923
sg24
I00
sg25
Vpass
p962
sg27
I00
sba(iPlay
Play
p963
(dp964
g3
I0
sg4
VMiddle
p965
sg6
I52
sg7
I3
sg8
I01
sg9
I2
sg10
(lp966
(I1
VCam Newton
p967
tp968
a(I16
VPhilly Brown
p969
tp970
a(I31
VAntonio Cromartie
p971
tp972
asg16
I1
sg17
(dp973
sg19
VShotgun
p974
sg20
V01:16
p975
sg22
g923
sg24
I00
sg25
Vpass
p976
sg27
I01
sba(iPlay
Play
p977
(dp978
g3
I23
sg4
VRight
p979
sg6
I63
sg7
I10
sg8
I01
sg9
I1
sg10
(lp980
(I1
VCam Newton
p981
tp982
a(I16
VPhilly Brown
p983
tp984
a(I32
VTyrann Mathieu
p985
tp986
asg16
I1
sg17
(dp987
sg19
VShotgun
p988
sg20
V01:13
p989
sg22
g923
sg24
I00
sg25
Vpass
p990
sg27
I00
sba(iPlay
Play
p991
(dp992
g3
I3
sg4
VMiddle
p993
sg6
I86
sg7
I10
sg8
I01
sg9
I1
sg10
(lp994
(I28
VJonathan Stewart
p995
tp996
a(I26
VRashad Johnson
p997
tp998
asg17
(dp999
sg19
Nsg20
V01:05
p1000
sg22
g923
sg16
I1
sg25
Vrush
p1001
sg24
I00
sba(iPlay
Play
p1002
(dp1003
g3
I0
sg4
VRight
p1004
sg6
I89
sg7
I7
sg8
I01
sg9
I2
sg10
(lp1005
(I1
VCam Newton
p1006
tp1007
a(I16
VPhilly Brown
p1008
tp1009
asg16
I1
sg17
(dp1010
sg19
VShotgun
p1011
sg20
V:32
p1012
sg22
g923
sg24
I00
sg25
Vpass
p1013
sg27
I01
sba(iPlay
Play
p1014
(dp1015
g3
I0
sg4
VRight
p1016
sg6
I89
sg7
I7
sg8
I01
sg9
I3
sg10
(lp1017
(I1
VCam Newton
p1018
tp1019
a(I26
VRashad Johnson
p1020
tp1021
a(I88
VGreg Olsen
p1022
tp1023
asg16
I1
sg17
(dp1024
sg19
VShotgun
p1025
sg20
V:28
p1026
sg22
g923
sg24
I00
sg25
Vpass
p1027
sg27
I01
sba(iPlay
Play
p1028
(dp1029
g8
I01
sg9
I4
sg10
(lp1030
(I8
VBrad Nortman
p1031
tp1032
a(I9
VGraham Gano
p1033
tp1034
a(I86
VBrandon Williams
p1035
tp1036
asg17
(dp1037
sg20
V:25
p1038
sg22
g923
sg16
I1
sg25
Vfieldgoal
p1039
sg24
I00
sba(iPlay
Play
p1040
(dp1041
g8
I01
sg9
I4
sg10
(lp1042
(I8
VBrad Nortman
p1043
tp1044
a(I9
VGraham Gano
p1045
tp1046
asg17
(dp1047
g923
I1
ssg20
V:20
p1048
sg22
g923
sg16
I1
sg25
Vfieldgoal
p1049
sg24
I00
sba(iPlay
Play
p1050
(dp1051
g3
I0
sg4
VRight
p1052
sg6
I42
sg7
I10
sg8
I01
sg9
I1
sg10
(lp1053
(I14
VRyan Lindley
p1054
tp1055
a(I19
VTed Ginn
p1056
tp1057
asg16
I1
sg17
(dp1058
sg19
VShotgun
p1059
sg20
V:05
p1060
sg22
VARI
p1061
sg24
I00
sg25
Vpass
p1062
sg27
I01
sba(iPlay
Play
p1063
(dp1064
g3
I0
sg4
VRight
p1065
sg6
I20
sg7
I10
sg8
I01
sg9
I1
sg10
(lp1066
(I1
VCam Newton
p1067
tp1068
a(I82
VJerricho Cotchery
p1069
tp1070
asg16
I2
sg17
(dp1071
sg19
VShotgun
p1072
sg20
V15:00
p1073
sg22
VCAR
p1074
sg24
I00
sg25
Vpass
p1075
sg27
I01
sba(iPlay
Play
p1076
(dp1077
g3
I1
sg4
VRight
p1078
sg6
I20
sg7
I10
sg8
I01
sg9
I2
sg10
(lp1079
(I28
VJonathan Stewart
p1080
tp1081
a(I57
VAlex Okafor
p1082
tp1083
asg17
(dp1084
sg19
Nsg20
V14:55
p1085
sg22
g1074
sg16
I2
sg25
Vrush
p1086
sg24
I00
sba(iPlay
Play
p1087
(dp1088
g3
I-4
sg4
VLeft
p1089
sg6
I25
sg7
I5
sg8
I01
sg9
I2
sg10
(lp1090
(I1
VCam Newton
p1091
tp1092
a(I98
VFrostee Rucker
p1093
tp1094
asg17
(dp1095
sg19
VShotgun
p1096
sg20
V14:34
p1097
sg22
g1074
sg16
I2
sg25
Vrush
p1098
sg24
I00
sba(iPlay
Play
p1099
(dp1100
g3
I10
sg4
VLeft
p1101
sg6
I21
sg7
I9
sg8
I01
sg9
I3
sg10
(lp1102
(I1
VCam Newton
p1103
tp1104
a(I36
VDeone Bucannon
p1105
tp1106
asg17
(dp1107
sg19
VShotgun
p1108
sg20
V13:54
p1109
sg22
g1074
sg16
I2
sg25
Vrush
p1110
sg24
I00
sba(iPlay
Play
p1111
(dp1112
g3
I0
sg4
VRight
p1113
sg6
I31
sg7
I10
sg8
I01
sg9
I1
sg10
(lp1114
(I1
VCam Newton
p1115
tp1116
a(I88
VGreg Olsen
p1117
tp1118
asg16
I2
sg17
(dp1119
sg19
VShotgun
p1120
sg20
V13:18
p1121
sg22
g1074
sg24
I00
sg25
Vpass
p1122
sg27
I01
sba(iPlay
Play
p1123
(dp1124
g3
I-2
sg4
VRight
p1125
sg6
I31
sg7
I10
sg8
I01
sg9
I2
sg10
(lp1126
(I28
VJonathan Stewart
p1127
tp1128
a(I91
VMatt Shaughnessy
p1129
tp1130
asg17
(dp1131
sg19
VShotgun
p1132
sg20
V13:11
p1133
sg22
g1074
sg16
I2
sg25
Vrush
p1134
sg24
I00
sba(iPlay
Play
p1135
(dp1136
g3
I13
sg4
VLeft
p1137
sg6
I29
sg7
I12
sg8
I01
sg9
I3
sg10
(lp1138
(I1
VCam Newton
p1139
tp1140
a(I57
VAlex Okafor
p1141
tp1142
a(I36
VDeone Bucannon
p1143
tp1144
asg17
(dp1145
sg19
VShotgun
p1146
sg20
V12:31
p1147
sg22
g1074
sg16
I2
sg25
Vrush
p1148
sg24
I00
sba(iPlay
Play
p1149
(dp1150
g3
I4
sg4
VRight
p1151
sg6
I42
sg7
I10
sg8
I01
sg9
I1
sg10
(lp1152
(I1
VCam Newton
p1153
tp1154
a(I82
VJerricho Cotchery
p1155
tp1156
a(I31
VAntonio Cromartie
p1157
tp1158
asg16
I2
sg17
(dp1159
sg19
VShotgun
p1160
sg20
V11:52
p1161
sg22
g1074
sg24
I00
sg25
Vpass
p1162
sg27
I00
sba(iPlay
Play
p1163
(dp1164
g3
I0
sg4
VLeft
p1165
sg6
I46
sg7
I6
sg8
I01
sg9
I2
sg10
(lp1166
(I28
VJonathan Stewart
p1167
tp1168
a(I98
VFrostee Rucker
p1169
tp1170
asg17
(dp1171
sg19
VShotgun
p1172
sg20
V11:18
p1173
sg22
g1074
sg16
I2
sg25
Vrush
p1174
sg24
I00
sba(iPlay
Play
p1175
(dp1176
g3
I11
sg4
VRight
p1177
sg6
I46
sg7
I6
sg8
I01
sg9
I3
sg10
(lp1178
(I1
VCam Newton
p1179
tp1180
a(I59
VMarcus Benard
p1181
tp1182
a(I13
VKelvin Benjamin
p1183
tp1184
a(I36
VDeone Bucannon
p1185
tp1186
asg16
I2
sg17
(dp1187
sg19
VShotgun
p1188
sg20
V10:34
p1189
sg22
g1074
sg24
I00
sg25
Vpass
p1190
sg27
I00
sba(iPlay
Play
p1191
(dp1192
g3
I3
sg4
VMiddle
p1193
sg6
I57
sg7
I10
sg8
I01
sg9
I1
sg10
(lp1194
(I28
VJonathan Stewart
p1195
tp1196
a(I59
VMarcus Benard
p1197
tp1198
a(I93
VCalais Campbell
p1199
tp1200
asg17
(dp1201
sg19
VShotgun
p1202
sg20
V09:45
p1203
sg22
g1074
sg16
I2
sg25
Vrush
p1204
sg24
I00
sba(iPlay
Play
p1205
(dp1206
g3
I-3
sg4
VRight
p1207
sg6
I60
sg7
I7
sg8
I01
sg9
I2
sg10
(lp1208
(I1
VCam Newton
p1209
tp1210
a(I50
VLarry Foote
p1211
tp1212
asg17
(dp1213
sg19
VShotgun
p1214
sg20
V09:16
p1215
sg22
g1074
sg16
I2
sg25
Vrush
p1216
sg24
I00
sba(iPlay
Play
p1217
(dp1218
g3
I6
sg4
VLeft
p1219
sg6
I57
sg7
I10
sg8
I01
sg9
I3
sg10
(lp1220
(I1
VCam Newton
p1221
tp1222
a(I11
VBrenton Bersin
p1223
tp1224
a(I36
VDeone Bucannon
p1225
tp1226
asg16
I2
sg17
(dp1227
sg19
VShotgun
p1228
sg20
V08:38
p1229
sg22
g1074
sg24
I00
sg25
Vpass
p1230
sg27
I00
sba(iPlay
Play
p1231
(dp1232
g3
I0
sg4
Nsg6
I63
sg7
I4
sg8
I01
sg9
I4
sg10
Nsg17
(dp1233
sg19
Nsg20
V07:49
p1234
sg22
g1074
sg16
I2
sg25
Vpenalty
p1235
sg24
I00
sba(iPlay
Play
p1236
(dp1237
g3
I0
sg4
Nsg6
I63
sg7
I4
sg8
I01
sg9
I4
sg10
(lp1238
(I8
VBrad Nortman
p1239
tp1240
a(I19
VTed Ginn
p1241
tp1242
asg17
(dp1243
sg19
Nsg20
V07:38
p1244
sg22
g1074
sg16
I2
sg25
Vpunt
p1245
sg24
I00
sba(iPlay
Play
p1246
(dp1247
g3
I-1
sg4
VMiddle
p1248
sg6
I8
sg7
I10
sg8
I01
sg9
I1
sg10
(lp1249
(I33
VKerwynn Williams
p1250
tp1251
a(I42
VColin Jones
p1252
tp1253
asg17
(dp1254
sg19
Nsg20
V07:29
p1255
sg22
VARI
p1256
sg16
I2
sg25
Vrush
p1257
sg24
I00
sba(iPlay
Play
p1258
(dp1259
g3
I1
sg4
VRight
p1260
sg6
I7
sg7
I11
sg8
I01
sg9
I2
sg10
(lp1261
(I33
VKerwynn Williams
p1262
tp1263
a(I98
VStar Lotulelei
p1264
tp1265
asg17
(dp1266
sg19
Nsg20
V06:48
p1267
sg22
g1256
sg16
I2
sg25
Vrush
p1268
sg24
I00
sba(iPlay
Play
p1269
(dp1270
g3
I0
sg4
VLeft
p1271
sg6
I8
sg7
I10
sg8
I01
sg9
I3
sg10
(lp1272
(I14
VRyan Lindley
p1273
tp1274
a(I15
VMichael Floyd
p1275
tp1276
asg16
I2
sg17
(dp1277
sg19
VShotgun
p1278
sg20
V06:04
p1279
sg22
g1256
sg24
I00
sg25
Vpass
p1280
sg27
I01
sba(iPlay
Play
p1281
(dp1282
g3
I0
sg4
Nsg6
I8
sg7
I10
sg8
I01
sg9
I4
sg10
(lp1283
(I2
VDrew Butler
p1284
tp1285
a(I11
VBrenton Bersin
p1286
tp1287
asg17
(dp1288
sg19
Nsg20
V05:58
p1289
sg22
g1256
sg16
I2
sg25
Vpunt
p1290
sg24
I00
sba(iPlay
Play
p1291
(dp1292
g3
I0
sg4
VRight
p1293
sg6
I61
sg7
I10
sg8
I01
sg9
I1
sg10
(lp1294
(I1
VCam Newton
p1295
tp1296
a(I43
VFozzy Whittaker
p1297
tp1298
asg16
I2
sg17
(dp1299
VCAR
p1300
I6
ssg19
VShotgun
p1301
sg20
V05:50
p1302
sg22
g1300
sg24
I00
sg25
Vpass
p1303
sg27
I00
sba(iPlay
Play
p1304
(dp1305
g8
I01
sg9
Nsg10
(lp1306
(I9
VGraham Gano
p1307
tp1308
asg17
(dp1309
g1300
I1
ssg20
V05:36
p1310
sg22
g1300
sg16
I2
sg25
Vextrapoint
p1311
sg24
I00
sba(iPlay
Play
p1312
(dp1313
g3
I-1
sg4
VMiddle
p1314
sg6
I97
sg7
I3
sg8
I01
sg9
I1
sg10
(lp1315
(I1
VCam Newton
p1316
tp1317
a(I50
VLarry Foote
p1318
tp1319
asg17
(dp1320
sg19
VShotgun
p1321
sg20
V05:28
p1322
sg22
VCAR
p1323
sg16
I2
sg25
Vrush
p1324
sg24
I00
sba(iPlay
Play
p1325
(dp1326
g3
I1
sg4
VLeft
p1327
sg6
I96
sg7
I4
sg8
I01
sg9
I2
sg10
(lp1328
(I35
VMike Tolbert
p1329
tp1330
a(I31
VAntonio Cromartie
p1331
tp1332
a(I26
VRashad Johnson
p1333
tp1334
asg17
(dp1335
sg19
VShotgun
p1336
sg20
V04:48
p1337
sg22
g1323
sg16
I2
sg25
Vrush
p1338
sg24
I00
sba(iPlay
Play
p1339
(dp1340
g3
I0
sg4
VRight
p1341
sg6
I97
sg7
I3
sg8
I01
sg9
I3
sg10
(lp1342
(I1
VCam Newton
p1343
tp1344
a(I88
VGreg Olsen
p1345
tp1346
a(I22
VTony Jefferson
p1347
tp1348
asg16
I2
sg17
(dp1349
sg19
Nsg20
V04:12
p1350
sg22
g1323
sg24
I00
sg25
Vpass
p1351
sg27
I01
sba(iPlay
Play
p1352
(dp1353
g3
I0
sg4
VLeft
p1354
sg6
I99
sg7
I1
sg8
I01
sg9
I1
sg10
(lp1355
(I1
VCam Newton
p1356
tp1357
a(I35
VMike Tolbert
p1358
tp1359
asg16
I2
sg17
(dp1360
g1323
I6
ssg19
Nsg20
V04:09
p1361
sg22
g1323
sg24
I00
sg25
Vpass
p1362
sg27
I00
sba(iPlay
Play
p1363
(dp1364
g8
I01
sg9
Nsg10
(lp1365
(I9
VGraham Gano
p1366
tp1367
asg17
(dp1368
g1323
I1
ssg20
V04:04
p1369
sg22
g1323
sg16
I2
sg25
Vextrapoint
p1370
sg24
I00
sba(iPlay
Play
p1371
(dp1372
g3
I-1
sg4
VRight
p1373
sg6
I20
sg7
I10
sg8
I01
sg9
I1
sg10
(lp1374
(I33
VKerwynn Williams
p1375
tp1376
a(I58
VThomas Davis
p1377
tp1378
asg17
(dp1379
sg19
Nsg20
V04:04
p1380
sg22
VARI
p1381
sg16
I2
sg25
Vrush
p1382
sg24
I00
sba(iPlay
Play
p1383
(dp1384
g3
I-2
sg4
VRight
p1385
sg6
I19
sg7
I11
sg8
I01
sg9
I2
sg10
(lp1386
(I14
VRyan Lindley
p1387
tp1388
a(I33
VKerwynn Williams
p1389
tp1390
a(I58
VThomas Davis
p1391
tp1392
asg16
I2
sg17
(dp1393
sg19
VShotgun
p1394
sg20
V03:20
p1395
sg22
g1381
sg24
I00
sg25
Vpass
p1396
sg27
I00
sba(iPlay
Play
p1397
(dp1398
g3
I0
sg4
VRight
p1399
sg6
I17
sg7
I13
sg8
I01
sg9
I3
sg10
(lp1400
(I14
VRyan Lindley
p1401
tp1402
a(I12
VJohn Brown
p1403
tp1404
asg16
I2
sg17
(dp1405
sg19
VShotgun
p1406
sg20
V02:36
p1407
sg22
g1381
sg24
I00
sg25
Vpass
p1408
sg27
I01
sba(iPlay
Play
p1409
(dp1410
g3
I0
sg4
Nsg6
I17
sg7
I13
sg8
I01
sg9
I4
sg10
(lp1411
(I2
VDrew Butler
p1412
tp1413
a(I11
VBrenton Bersin
p1414
tp1415
a(I86
VBrandon Williams
p1416
tp1417
asg17
(dp1418
sg19
Nsg20
V02:31
p1419
sg22
g1381
sg16
I2
sg25
Vpunt
p1420
sg24
I00
sba(iPlay
Play
p1421
(dp1422
g3
I0
sg4
Nsg6
I22
sg7
I8
sg8
I01
sg9
I4
sg10
(lp1423
(I2
VDrew Butler
p1424
tp1425
a(I11
VBrenton Bersin
p1426
tp1427
asg17
(dp1428
sg19
Nsg20
V02:22
p1429
sg22
g1381
sg16
I2
sg25
Vpunt
p1430
sg24
I00
sba(iPlay
Play
p1431
(dp1432
g3
I20
sg4
VRight
p1433
sg6
I41
sg7
I10
sg8
I01
sg9
I1
sg10
(lp1434
(I1
VCam Newton
p1435
tp1436
a(I88
VGreg Olsen
p1437
tp1438
a(I26
VRashad Johnson
p1439
tp1440
a(I77
VByron Bell
p1441
tp1442
asg16
I2
sg17
(dp1443
sg19
VShotgun
p1444
sg20
V02:13
p1445
sg22
VCAR
p1446
sg24
I00
sg25
Vpass
p1447
sg27
I00
sba(iPlay
Play
p1448
(dp1449
g3
I6
sg4
VLeft
p1450
sg6
I31
sg7
I20
sg8
I01
sg9
I1
sg10
(lp1451
(I28
VJonathan Stewart
p1452
tp1453
a(I94
VSam Acho
p1454
tp1455
a(I22
VTony Jefferson
p1456
tp1457
asg17
(dp1458
sg19
VShotgun
p1459
sg20
V01:47
p1460
sg22
g1446
sg16
I2
sg25
Vrush
p1461
sg24
I00
sba(iPlay
Play
p1462
(dp1463
g3
I34
sg4
VLeft
p1464
sg6
I37
sg7
I14
sg8
I01
sg9
I2
sg10
(lp1465
(I1
VCam Newton
p1466
tp1467
a(I84
VEd Dickson
p1468
tp1469
a(I26
VRashad Johnson
p1470
tp1471
a(I21
VPatrick Peterson
p1472
tp1473
asg16
I2
sg17
(dp1474
sg19
VShotgun
p1475
sg20
V01:12
p1476
sg22
g1446
sg24
I00
sg25
Vpass
p1477
sg27
I00
sba(iPlay
Play
p1478
(dp1479
g3
I0
sg4
VRight
p1480
sg6
I71
sg7
I10
sg8
I01
sg9
I1
sg10
(lp1481
(I1
VCam Newton
p1482
tp1483
a(I84
VEd Dickson
p1484
tp1485
asg16
I2
sg17
(dp1486
sg19
Nsg20
V:50
p1487
sg22
g1446
sg24
I00
sg25
Vpass
p1488
sg27
I01
sba(iPlay
Play
p1489
(dp1490
g3
I7
sg4
VLeft
p1491
sg6
I71
sg7
I10
sg8
I01
sg9
I2
sg10
(lp1492
(I28
VJonathan Stewart
p1493
tp1494
a(I26
VRashad Johnson
p1495
tp1496
a(I51
VKevin Minter
p1497
tp1498
a(I70
VTrai Turner
p1499
tp1500
asg17
(dp1501
sg19
Nsg20
V:46
p1502
sg22
g1446
sg16
I2
sg25
Vrush
p1503
sg24
I00
sba(iPlay
Play
p1504
(dp1505
g3
I0
sg4
VRight
p1506
sg6
I61
sg7
I20
sg8
I01
sg9
I2
sg10
(lp1507
(I1
VCam Newton
p1508
tp1509
a(I93
VCalais Campbell
p1510
tp1511
a(I35
VMike Tolbert
p1512
tp1513
asg16
I2
sg17
(dp1514
sg19
VShotgun
p1515
sg20
V:18
p1516
sg22
g1446
sg24
I00
sg25
Vpass
p1517
sg27
I01
sba(iPlay
Play
p1518
(dp1519
g3
I4
sg4
VRight
p1520
sg6
I61
sg7
I20
sg8
I01
sg9
I3
sg10
(lp1521
(I43
VFozzy Whittaker
p1522
tp1523
a(I26
VRashad Johnson
p1524
tp1525
a(I74
VMike Remmers
p1526
tp1527
a(I82
VJerricho Cotchery
p1528
tp1529
asg17
(dp1530
sg19
VShotgun
p1531
sg20
V:08
p1532
sg22
g1446
sg16
I2
sg25
Vrush
p1533
sg24
I00
sba(iPlay
Play
p1534
(dp1535
g3
I4
sg4
VMiddle
p1536
sg6
I51
sg7
I30
sg8
I01
sg9
I3
sg10
(lp1537
(I28
VJonathan Stewart
p1538
tp1539
a(I57
VAlex Okafor
p1540
tp1541
asg17
(dp1542
sg19
VShotgun
p1543
sg20
V15:00
p1544
sg22
VCAR
p1545
sg16
I3
sg25
Vrush
p1546
sg24
I00
sba(iPlay
Play
p1547
(dp1548
g3
I0
sg4
Nsg6
I55
sg7
I26
sg8
I01
sg9
I4
sg10
Nsg17
(dp1549
sg19
Nsg20
V14:27
p1550
sg22
g1545
sg16
I3
sg25
Vpenalty
p1551
sg24
I00
sba(iPlay
Play
p1552
(dp1553
g3
I0
sg4
Nsg6
I60
sg7
I21
sg8
I01
sg9
I4
sg10
(lp1554
(I8
VBrad Nortman
p1555
tp1556
asg17
(dp1557
sg19
Nsg20
V14:18
p1558
sg22
g1545
sg16
I3
sg25
Vpunt
p1559
sg24
I00
sba(iPlay
Play
p1560
(dp1561
g3
I0
sg4
VLeft
p1562
sg6
I20
sg7
I10
sg8
I01
sg9
I1
sg10
(lp1563
(I14
VRyan Lindley
p1564
tp1565
a(I11
VLarry Fitzgerald
p1566
tp1567
asg16
I3
sg17
(dp1568
sg19
VShotgun
p1569
sg20
V14:11
p1570
sg22
VARI
p1571
sg24
I00
sg25
Vpass
p1572
sg27
I01
sba(iPlay
Play
p1573
(dp1574
g3
I-6
sg4
Nsg6
I20
sg7
I10
sg8
I01
sg9
I2
sg10
(lp1575
(I14
VRyan Lindley
p1576
tp1577
a(I99
VKawann Short
p1578
tp1579
asg16
I3
sg17
(dp1580
sg19
VShotgun
p1581
sg20
V14:05
p1582
sg22
g1571
sg24
I00
sg25
Vpass
p1583
sg27
I00
sba(iPlay
Play
p1584
(dp1585
g3
I14
sg4
VMiddle
p1586
sg6
I14
sg7
I16
sg8
I01
sg9
I3
sg10
(lp1587
(I14
VRyan Lindley
p1588
tp1589
a(I89
VJohn Carlson
p1590
tp1591
a(I59
VLuke Kuechly
p1592
tp1593
asg16
I3
sg17
(dp1594
sg19
VShotgun
p1595
sg20
V13:20
p1596
sg22
g1571
sg24
I00
sg25
Vpass
p1597
sg27
I00
sba(iPlay
Play
p1598
(dp1599
g3
I0
sg4
Nsg6
I28
sg7
I2
sg8
I01
sg9
I4
sg10
(lp1600
(I2
VDrew Butler
p1601
tp1602
a(I11
VBrenton Bersin
p1603
tp1604
asg17
(dp1605
sg19
Nsg20
V12:47
p1606
sg22
g1571
sg16
I3
sg25
Vpunt
p1607
sg24
I00
sba(iPlay
Play
p1608
(dp1609
g3
I0
sg4
VRight
p1610
sg6
I29
sg7
I10
sg8
I01
sg9
I1
sg10
(lp1611
(I28
VJonathan Stewart
p1612
tp1613
a(I93
VCalais Campbell
p1614
tp1615
a(I94
VSam Acho
p1616
tp1617
asg17
(dp1618
sg19
Nsg20
V12:38
p1619
sg22
VCAR
p1620
sg16
I3
sg25
Vrush
p1621
sg24
I00
sba(iPlay
Play
p1622
(dp1623
g3
I30
sg4
Nsg6
I29
sg7
I10
sg8
I01
sg9
I2
sg10
(lp1624
(I1
VCam Newton
p1625
tp1626
a(I94
VSam Acho
p1627
tp1628
a(I26
VRashad Johnson
p1629
tp1630
a(I74
VMike Remmers
p1631
tp1632
a(I67
VRyan Kalil
p1633
tp1634
asg16
I3
sg17
(dp1635
sg19
Nsg20
V11:57
p1636
sg22
g1620
sg24
I00
sg25
Vpass
p1637
sg27
I00
sba(iPlay
Play
p1638
(dp1639
g3
I1
sg4
VRight
p1640
sg6
I92
sg7
I8
sg8
I01
sg9
I1
sg10
(lp1641
(I14
VRyan Lindley
p1642
tp1643
a(I11
VLarry Fitzgerald
p1644
tp1645
a(I59
VLuke Kuechly
p1646
tp1647
asg16
I3
sg17
(dp1648
sg19
VShotgun
p1649
sg20
V11:53
p1650
sg22
VARI
p1651
sg24
I01
sg25
Vpass
p1652
sg27
I01
sba(iPlay
Play
p1653
(dp1654
g3
I35
sg4
VLeft
p1655
sg6
I5
sg7
I10
sg8
I01
sg9
I1
sg10
(lp1656
(I28
VJonathan Stewart
p1657
tp1658
a(I22
VTony Jefferson
p1659
tp1660
asg17
(dp1661
sg19
Nsg20
V11:48
p1662
sg22
VCAR
p1663
sg16
I3
sg25
Vrush
p1664
sg24
I00
sba(iPlay
Play
p1665
(dp1666
g3
I4
sg4
VLeft
p1667
sg6
I40
sg7
I10
sg8
I01
sg9
I1
sg10
(lp1668
(I34
VDeAngelo Williams
p1669
tp1670
a(I51
VKevin Minter
p1671
tp1672
asg17
(dp1673
sg19
Nsg20
V10:53
p1674
sg22
g1663
sg16
I3
sg25
Vrush
p1675
sg24
I00
sba(iPlay
Play
p1676
(dp1677
g3
I12
sg4
VRight
p1678
sg6
I44
sg7
I6
sg8
I01
sg9
I2
sg10
(lp1679
(I34
VDeAngelo Williams
p1680
tp1681
a(I21
VPatrick Peterson
p1682
tp1683
asg17
(dp1684
sg19
VShotgun
p1685
sg20
V10:22
p1686
sg22
g1663
sg16
I3
sg25
Vrush
p1687
sg24
I00
sba(iPlay
Play
p1688
(dp1689
g3
I0
sg4
VMiddle
p1690
sg6
I56
sg7
I10
sg8
I01
sg9
I1
sg10
(lp1691
(I34
VDeAngelo Williams
p1692
tp1693
a(I92
VDan Williams
p1694
tp1695
asg17
(dp1696
sg19
Nsg20
V09:34
p1697
sg22
g1663
sg16
I3
sg25
Vrush
p1698
sg24
I00
sba(iPlay
Play
p1699
(dp1700
g3
I0
sg4
VRight
p1701
sg6
I56
sg7
I10
sg8
I01
sg9
I2
sg10
(lp1702
(I34
VDeAngelo Williams
p1703
tp1704
a(I92
VDan Williams
p1705
tp1706
asg17
(dp1707
sg19
Nsg20
V08:46
p1708
sg22
g1663
sg16
I3
sg25
Vrush
p1709
sg24
I00
sba(iPlay
Play
p1710
(dp1711
g3
I0
sg4
VMiddle
p1712
sg6
I56
sg7
I10
sg8
I01
sg9
I3
sg10
(lp1713
(I1
VCam Newton
p1714
tp1715
a(I13
VKelvin Benjamin
p1716
tp1717
a(I36
VDeone Bucannon
p1718
tp1719
asg16
I3
sg17
(dp1720
sg19
VShotgun
p1721
sg20
V08:01
p1722
sg22
g1663
sg24
I00
sg25
Vpass
p1723
sg27
I01
sba(iPlay
Play
p1724
(dp1725
g3
I0
sg4
Nsg6
I56
sg7
I10
sg8
I01
sg9
I4
sg10
(lp1726
(I8
VBrad Nortman
p1727
tp1728
a(I19
VTed Ginn
p1729
tp1730
asg17
(dp1731
sg19
Nsg20
V07:56
p1732
sg22
g1663
sg16
I3
sg25
Vpunt
p1733
sg24
I00
sba(iPlay
Play
p1734
(dp1735
g3
I12
sg4
VRight
p1736
sg6
I13
sg7
I10
sg8
I01
sg9
I1
sg10
(lp1737
(I14
VRyan Lindley
p1738
tp1739
a(I11
VLarry Fitzgerald
p1740
tp1741
a(I59
VLuke Kuechly
p1742
tp1743
asg16
I3
sg17
(dp1744
sg19
VShotgun
p1745
sg20
V07:45
p1746
sg22
VARI
p1747
sg24
I00
sg25
Vpass
p1748
sg27
I00
sba(iPlay
Play
p1749
(dp1750
g3
I6
sg4
VMiddle
p1751
sg6
I25
sg7
I10
sg8
I01
sg9
I1
sg10
(lp1752
(I14
VRyan Lindley
p1753
tp1754
a(I89
VJohn Carlson
p1755
tp1756
a(I58
VThomas Davis
p1757
tp1758
asg16
I3
sg17
(dp1759
sg19
Nsg20
V07:08
p1760
sg22
g1747
sg24
I00
sg25
Vpass
p1761
sg27
I00
sba(iPlay
Play
p1762
(dp1763
g3
I-9
sg4
Nsg6
I31
sg7
I4
sg8
I01
sg9
I2
sg10
(lp1764
(I14
VRyan Lindley
p1765
tp1766
a(I95
VCharles Johnson
p1767
tp1768
asg16
I3
sg17
(dp1769
sg19
VShotgun
p1770
sg20
V06:33
p1771
sg22
g1747
sg24
I00
sg25
Vpass
p1772
sg27
I00
sba(iPlay
Play
p1773
(dp1774
g3
I-8
sg4
Nsg6
I22
sg7
I13
sg8
I01
sg9
I3
sg10
(lp1775
(I14
VRyan Lindley
p1776
tp1777
a(I95
VCharles Johnson
p1778
tp1779
asg16
I3
sg17
(dp1780
sg19
VShotgun
p1781
sg20
V05:50
p1782
sg22
g1747
sg24
I00
sg25
Vpass
p1783
sg27
I00
sba(iPlay
Play
p1784
(dp1785
g3
I0
sg4
Nsg6
I14
sg7
I21
sg8
I01
sg9
I4
sg10
(lp1786
(I2
VDrew Butler
p1787
tp1788
a(I11
VBrenton Bersin
p1789
tp1790
asg17
(dp1791
sg19
Nsg20
V05:20
p1792
sg22
g1747
sg16
I3
sg25
Vpunt
p1793
sg24
I00
sba(iPlay
Play
p1794
(dp1795
g3
I2
sg4
VRight
p1796
sg6
I48
sg7
I10
sg8
I01
sg9
I1
sg10
(lp1797
(I28
VJonathan Stewart
p1798
tp1799
a(I94
VSam Acho
p1800
tp1801
a(I22
VTony Jefferson
p1802
tp1803
asg17
(dp1804
sg19
Nsg20
V05:12
p1805
sg22
VCAR
p1806
sg16
I3
sg25
Vrush
p1807
sg24
I00
sba(iPlay
Play
p1808
(dp1809
g3
I6
sg4
VMiddle
p1810
sg6
I50
sg7
I8
sg8
I01
sg9
I2
sg10
(lp1811
(I28
VJonathan Stewart
p1812
tp1813
a(I98
VFrostee Rucker
p1814
tp1815
asg17
(dp1816
sg19
Nsg20
V04:26
p1817
sg22
g1806
sg16
I3
sg25
Vrush
p1818
sg24
I00
sba(iPlay
Play
p1819
(dp1820
g3
I0
sg4
VRight
p1821
sg6
I56
sg7
I2
sg8
I01
sg9
I3
sg10
(lp1822
(I28
VJonathan Stewart
p1823
tp1824
a(I26
VRashad Johnson
p1825
tp1826
a(I92
VDan Williams
p1827
tp1828
asg17
(dp1829
sg19
Nsg20
V03:36
p1830
sg22
g1806
sg16
I3
sg25
Vrush
p1831
sg24
I00
sba(iPlay
Play
p1832
(dp1833
g3
I0
sg4
Nsg6
I56
sg7
I2
sg8
I01
sg9
I4
sg10
(lp1834
(I8
VBrad Nortman
p1835
tp1836
a(I42
VColin Jones
p1837
tp1838
a(I97
VMario Addison
p1839
tp1840
asg17
(dp1841
sg19
Nsg20
V03:01
p1842
sg22
g1806
sg16
I3
sg25
Vpunt
p1843
sg24
I00
sba(iPlay
Play
p1844
(dp1845
g3
I18
sg4
Nsg6
I41
sg7
I17
sg8
I01
sg9
I4
sg10
(lp1846
(I8
VBrad Nortman
p1847
tp1848
a(I36
VDeone Bucannon
p1849
tp1850
asg17
(dp1851
sg19
Nsg20
V02:49
p1852
sg22
g1806
sg16
I3
sg25
Vrush
p1853
sg24
I00
sba(iPlay
Play
p1854
(dp1855
g3
I21
sg4
VMiddle
p1856
sg6
I53
sg7
I10
sg8
I01
sg9
I1
sg10
(lp1857
(I14
VRyan Lindley
p1858
tp1859
a(I12
VJohn Brown
p1860
tp1861
a(I33
VTre Boston
p1862
tp1863
asg16
I3
sg17
(dp1864
sg19
VShotgun
p1865
sg20
V02:41
p1866
sg22
VARI
p1867
sg24
I00
sg25
Vpass
p1868
sg27
I00
sba(iPlay
Play
p1869
(dp1870
g3
I5
sg4
VRight
p1871
sg6
I74
sg7
I10
sg8
I01
sg9
I1
sg10
(lp1872
(I14
VRyan Lindley
p1873
tp1874
a(I89
VJohn Carlson
p1875
tp1876
a(I42
VColin Jones
p1877
tp1878
asg16
I3
sg17
(dp1879
sg19
VShotgun
p1880
sg20
V02:21
p1881
sg22
g1867
sg24
I00
sg25
Vpass
p1882
sg27
I00
sba(iPlay
Play
p1883
(dp1884
g3
I11
sg4
VLeft
p1885
sg6
I79
sg7
I5
sg8
I01
sg9
I2
sg10
(lp1886
(I14
VRyan Lindley
p1887
tp1888
a(I11
VLarry Fitzgerald
p1889
tp1890
a(I59
VLuke Kuechly
p1891
tp1892
a(I33
VTre Boston
p1893
tp1894
asg16
I3
sg17
(dp1895
sg19
VShotgun
p1896
sg20
V02:03
p1897
sg22
g1867
sg24
I01
sg25
Vpass
p1898
sg27
I01
sba(iPlay
Play
p1899
(dp1900
g3
I1
sg4
VRight
p1901
sg6
I9
sg7
I10
sg8
I01
sg9
I1
sg10
(lp1902
(I28
VJonathan Stewart
p1903
tp1904
a(I95
VTommy Kelly
p1905
tp1906
a(I50
VLarry Foote
p1907
tp1908
asg17
(dp1909
sg19
Nsg20
V01:54
p1910
sg22
VCAR
p1911
sg16
I3
sg25
Vrush
p1912
sg24
I00
sba(iPlay
Play
p1913
(dp1914
g3
I-3
sg4
VRight
p1915
sg6
I10
sg7
I9
sg8
I01
sg9
I2
sg10
(lp1916
(I28
VJonathan Stewart
p1917
tp1918
a(I92
VDan Williams
p1919
tp1920
a(I95
VTommy Kelly
p1921
tp1922
asg17
(dp1923
sg19
Nsg20
V01:47
p1924
sg22
g1911
sg16
I3
sg25
Vrush
p1925
sg24
I00
sba(iPlay
Play
p1926
(dp1927
g3
I1
sg4
VMiddle
p1928
sg6
I7
sg7
I12
sg8
I01
sg9
I3
sg10
(lp1929
(I28
VJonathan Stewart
p1930
tp1931
a(I95
VTommy Kelly
p1932
tp1933
a(I93
VCalais Campbell
p1934
tp1935
asg17
(dp1936
sg19
Nsg20
V:59
p1937
sg22
g1911
sg16
I3
sg25
Vrush
p1938
sg24
I00
sba(iPlay
Play
p1939
(dp1940
g3
I-6
sg4
VRight
p1941
sg6
I8
sg7
I11
sg8
I01
sg9
I4
sg10
(lp1942
(I8
VBrad Nortman
p1943
tp1944
a(I28
VJustin Bethel
p1945
tp1946
asg17
(dp1947
sg19
Nsg20
V:11
p1948
sg22
g1911
sg16
I3
sg25
Vrush
p1949
sg24
I00
sba(iPlay
Play
p1950
(dp1951
g3
I4
sg4
VLeft
p1952
sg6
I28
sg7
I10
sg8
I01
sg9
I1
sg10
(lp1953
(I14
VRyan Lindley
p1954
tp1955
a(I12
VJohn Brown
p1956
tp1957
a(I15
VMichael Floyd
p1958
tp1959
a(I30
VStepfan Taylor
p1960
tp1961
a(I89
VJohn Carlson
p1962
tp1963
a(I63
VLyle Sendlein
p1964
tp1965
a(I24
VJosh Norman
p1966
tp1967
asg16
I3
sg17
(dp1968
sg19
VShotgun
p1969
sg20
V:01
p1970
sg22
VARI
p1971
sg24
I00
sg25
Vpass
p1972
sg27
I00
sba.